; Function Attrs: nounwind uwtable
define i32 @ARKodeReset(ptr noundef %0, double noundef %1, ptr noundef %2) local_unnamed_addr #0 {
  %4 = icmp eq ptr %0, null
  br i1 %4, label %5, label %6

5:                                                ; preds = %3
  tail call void (ptr, i32, i32, ptr, ptr, ptr, ...) @arkProcessError(ptr noundef null, i32 noundef -21, i32 noundef 204, ptr noundef nonnull @__func__.ARKodeReset, ptr noundef nonnull @.str, ptr noundef nonnull @.str.1)
  br label %14

6:                                                ; preds = %3
  %7 = tail call i32 @arkInit(ptr noundef nonnull %0, double noundef %1, ptr noundef %2, i32 noundef 1)
  %.not = icmp eq i32 %7, 0
  br i1 %.not, label %9, label %8

8:                                                ; preds = %6
  tail call void (ptr, i32, i32, ptr, ptr, ptr, ...) @arkProcessError(ptr noundef nonnull %0, i32 noundef %7, i32 noundef 214, ptr noundef nonnull @__func__.ARKodeReset, ptr noundef nonnull @.str, ptr noundef nonnull @.str.6)
  br label %14

9:                                                ; preds = %6
  %10 = getelementptr inbounds nuw i8, ptr %0, i64 200
  %11 = load ptr, ptr %10, align 8, !tbaa !58
  %.not17 = icmp eq ptr %11, null
  br i1 %.not17, label %14, label %12

12:                                               ; preds = %9
  %13 = tail call i32 %11(ptr noundef nonnull %0, double noundef %1, ptr noundef %2) #16
  br label %14

14:                                               ; preds = %9, %12, %8, %5
  %.0 = phi i32 [ -21, %5 ], [ %7, %8 ], [ %13, %12 ], [ 0, %9 ]
  ret i32 %.0
}